; Function Attrs: mustprogress nounwind uwtable
define internal void @_ZN12_GLOBAL__N_117DwarfSectionEntryD0Ev(ptr noundef nonnull align 8 dereferenceable(76) %0) unnamed_addr #0 align 2 {
  store ptr getelementptr inbounds inrange(-16, 32) (i8, ptr @_ZTVN12_GLOBAL__N_117DwarfSectionEntryE, i64 16), ptr %0, align 8
  %2 = getelementptr inbounds nuw i8, ptr %0, i64 64
  %3 = load ptr, ptr %2, align 8
  %.not.i.i = icmp eq ptr %3, null
  br i1 %.not.i.i, label %_ZN12_GLOBAL__N_117DwarfSectionEntryD2Ev.exit, label %4

4:                                                ; preds = %1
  %5 = getelementptr inbounds nuw i8, ptr %3, i64 64
  %6 = tail call noundef i64 @_ZNK4llvm15SmallVectorBaseIjE4sizeEv(ptr noundef nonnull align 8 dereferenceable(16) %5) #22
  %7 = load ptr, ptr %5, align 8
  %8 = getelementptr inbounds i8, ptr %3, i64 80
  %9 = icmp eq ptr %7, %8
  br i1 %9, label %_ZN4llvm11SmallVectorIN12_GLOBAL__N_115XCOFFRelocationELj1EED2Ev.exit.i.i.i.i, label %10

10:                                               ; preds = %4
  tail call void @free(ptr noundef %7) #22
  br label %_ZN4llvm11SmallVectorIN12_GLOBAL__N_115XCOFFRelocationELj1EED2Ev.exit.i.i.i.i

_ZN4llvm11SmallVectorIN12_GLOBAL__N_115XCOFFRelocationELj1EED2Ev.exit.i.i.i.i: ; preds = %10, %4
  %11 = getelementptr inbounds nuw i8, ptr %3, i64 32
  %12 = tail call noundef i64 @_ZNK4llvm15SmallVectorBaseIjE4sizeEv(ptr noundef nonnull align 8 dereferenceable(16) %11) #22
  %13 = load ptr, ptr %11, align 8
  %14 = getelementptr inbounds i8, ptr %3, i64 48
  %15 = icmp eq ptr %13, %14
  br i1 %15, label %_ZNKSt14default_deleteIN12_GLOBAL__N_112XCOFFSectionEEclEPS1_.exit.i.i, label %16

16:                                               ; preds = %_ZN4llvm11SmallVectorIN12_GLOBAL__N_115XCOFFRelocationELj1EED2Ev.exit.i.i.i.i
  tail call void @free(ptr noundef %13) #22
  br label %_ZNKSt14default_deleteIN12_GLOBAL__N_112XCOFFSectionEEclEPS1_.exit.i.i

_ZNKSt14default_deleteIN12_GLOBAL__N_112XCOFFSectionEEclEPS1_.exit.i.i: ; preds = %16, %_ZN4llvm11SmallVectorIN12_GLOBAL__N_115XCOFFRelocationELj1EED2Ev.exit.i.i.i.i
  tail call void @_ZdlPvm(ptr noundef nonnull %3, i64 noundef 96) #23
  br label %_ZN12_GLOBAL__N_117DwarfSectionEntryD2Ev.exit

_ZN12_GLOBAL__N_117DwarfSectionEntryD2Ev.exit:    ; preds = %1, %_ZNKSt14default_deleteIN12_GLOBAL__N_112XCOFFSectionEEclEPS1_.exit.i.i
  tail call void @_ZdlPvm(ptr noundef nonnull %0, i64 noundef 80) #23
  ret void
}